; Function Attrs: nounwind uwtable
define internal range(i32 0, 2) i32 @encode_case_4_dec(ptr noundef %0, i64 noundef %1) #0 {
  %3 = alloca %struct.ossl_quic_frame_reset_stream_st, align 8
  call void @llvm.lifetime.start.p0(i64 24, ptr nonnull %3) #4
  call void @llvm.memset.p0.i64(ptr noundef nonnull align 8 dereferenceable(24) %3, i8 0, i64 24, i1 false)
  %4 = call i32 @ossl_quic_wire_decode_frame_reset_stream(ptr noundef %0, ptr noundef nonnull %3) #4
  %.lobit = lshr i64 %1, 63
  %5 = trunc nuw nsw i64 %.lobit to i32
  %6 = call i32 @test_int_eq(ptr noundef nonnull @.str.5, i32 noundef 187, ptr noundef nonnull @.str.46, ptr noundef nonnull @.str.23, i32 noundef %4, i32 noundef %5) #4
  %.not = icmp eq i32 %6, 0
  br i1 %.not, label %11, label %7

7:                                                ; preds = %2
  %8 = icmp sgt i64 %1, -1
  br i1 %8, label %11, label %9

9:                                                ; preds = %7
  %10 = call i32 @test_mem_eq(ptr noundef nonnull @.str.5, i32 noundef 193, ptr noundef nonnull @.str.47, ptr noundef nonnull @.str.48, ptr noundef nonnull %3, i64 noundef 24, ptr noundef nonnull @encode_case_4_f, i64 noundef 24) #4
  %.not3 = icmp ne i32 %10, 0
  %. = zext i1 %.not3 to i32
  br label %11

11:                                               ; preds = %9, %7, %2
  %.0 = phi i32 [ 0, %2 ], [ 1, %7 ], [ %., %9 ]
  call void @llvm.lifetime.end.p0(i64 24, ptr nonnull %3) #4
  ret i32 %.0
}